(lp0
S'DeltaR_j1_lep'
p1
aS'DeltaR_j1_nu'
p2
aS'DeltaR_j1j2_had'
p3
aS'DeltaR_j1lep_j1had'
p4
aS'DeltaR_tlep_thad'
p5
aS'JetHadAK4_1j_eta'
p6
aS'JetHadAK4_1j_phi'
p7
aS'JetHadAK4_1j_pt'
p8
aS'JetHadAK4_2j_eta'
p9
aS'JetHadAK4_2j_phi'
p10
aS'JetHadAK4_2j_pt'
p11
aS'JetHadAK8_eta'
p12
aS'JetHadAK8_phi'
p13
aS'JetHadAK8_pt'
p14
aS'JetLep_eta'
p15
aS'JetLep_phi'
p16
aS'JetLep_pt'
p17
aS'Lep_eta'
p18
aS'Lep_phi'
p19
aS'Lep_pt'
p20
aS'N_AK4_HadJets'
p21
aS'N_AK4_LepJets'
p22
aS'Nu_eta'
p23
aS'Nu_phi'
p24
aS'Nu_pt'
p25
aS'S11'
p26
aS'S12'
p27
aS'S13'
p28
aS'S22'
p29
aS'S23'
p30
aS'S33'
p31
aS'TopHadOverLep_pt'
p32
aS'TopHad_eta'
p33
aS'TopHad_phi'
p34
aS'TopHad_pt'
p35
aS'TopLep_eta'
p36
aS'TopLep_phi'
p37
aS'TopLep_pt'
p38
aS'weight'
p39
a.